target datalayout = "e-m:e-p270:32:32-p271:32:32-p272:64:64-i64:64-i128:128-f80:128-n8:16:32:64-S128"
target triple = "x86_64-pc-linux-gnu"

%struct.job_record = type { i32, ptr, ptr, ptr, ptr, i16, i32, i32, i32, ptr, i32, ptr, ptr, i16, ptr, double, i64, ptr, ptr, ptr, ptr, ptr, ptr, i32, ptr, i32, i64, i64, i32, i32, ptr, i16, i64, i64, i8, i32, ptr, ptr, ptr, ptr, ptr, ptr, ptr, ptr, i32, ptr, ptr, i32, ptr, i32, ptr, i32, ptr, i32, ptr, ptr, ptr, ptr, ptr, ptr, i32, i16, i64, ptr, ptr, ptr, ptr, %struct.acct_policy_limit_set_t, i16, ptr, ptr, ptr, ptr, ptr, i32, ptr, ptr, ptr, ptr, ptr, i32, i32, ptr, ptr, ptr, i16, ptr, ptr, i8, ptr, ptr, i64, i64, i8, i32, i32, i8, i32, ptr, i32, i64, i32, ptr, ptr, ptr, i8, i16, i64, i32, ptr, ptr, ptr, ptr, ptr, i16, i32, ptr, ptr, ptr, ptr, i32, ptr, i32, i16, i64, ptr, i32, i32, ptr, i64, ptr, ptr, i64, i32, i32, i64, i32, i32, ptr, ptr, ptr, ptr, ptr, ptr, ptr, ptr, ptr, ptr, ptr, ptr, i32, ptr, i16, i16, i16, i16, ptr, i32, i32, i8, i64 }
%struct.acct_policy_limit_set_t = type { i16, i16, ptr }
%struct.node_record = type { ptr, ptr, i16, i64, i64, ptr, ptr, ptr, i16, ptr, i16, i16, i32, i32, i64, ptr, i16, i16, ptr, ptr, ptr, ptr, ptr, i64, i64, ptr, ptr, ptr, ptr, i32, ptr, ptr, i64, i64, i32, ptr, i64, ptr, i32, i16, ptr, ptr, i32, ptr, i32, i8, ptr, i32, i16, i16, ptr, i16, i64, i16, i64, ptr, i64, i32, i16, i64, i16, ptr, i16, i64, ptr, i64, i16, i32, i16, ptr, ptr, ptr, i16, i32, i16, i16, i32, ptr, i16, i32 }
%struct.job_details_t = type { i32, ptr, i64, ptr, i32, ptr, i64, ptr, i16, i16, ptr, i16, i32, i32, i32, i16, ptr, i16, ptr, ptr, ptr, i16, ptr, ptr, ptr, ptr, i32, ptr, ptr, ptr, ptr, ptr, i32, i32, i32, ptr, ptr, i16, i32, i32, i32, i32, i32, i32, i16, i16, i32, i8, i8, i32, i32, i64, i64, i16, i32, ptr, ptr, i8, ptr, i32, ptr, i64, ptr, ptr, i16, i16, i16, i8, ptr, ptr, ptr, ptr, ptr, ptr, i64, i32, i32, i8, ptr, i16, ptr, ptr, i16 }
%struct.multi_core_data = type { i16, i16, i16, i16, i16, i16, i16, i16, i16 }

@.str.33 = private unnamed_addr constant [23 x i8] c"%s: %pJ has no details\00", align 1
@__func__.job_req_node_filter = private unnamed_addr constant [20 x i8] c"job_req_node_filter\00", align 1

; Function Attrs: nounwind uwtable
define dso_local i32 @job_req_node_filter(ptr noundef %0, ptr noundef %1, i1 noundef zeroext %2) #0 {
  %4 = alloca i32, align 4
  %5 = alloca ptr, align 8
  %6 = alloca ptr, align 8
  %7 = alloca i8, align 1
  %8 = alloca ptr, align 8
  %9 = alloca ptr, align 8
  %10 = alloca ptr, align 8
  %11 = alloca i8, align 1
  %12 = alloca i32, align 4
  %13 = alloca i32, align 4
  store ptr %0, ptr %5, align 8
  store ptr %1, ptr %6, align 8
  %14 = zext i1 %2 to i8
  store i8 %14, ptr %7, align 1
  call void @llvm.lifetime.start.p0(i64 8, ptr %8) #8
  %15 = load ptr, ptr %5, align 8
  %16 = getelementptr inbounds nuw %struct.job_record, ptr %15, i32 0, i32 30
  %17 = load ptr, ptr %16, align 8
  store ptr %17, ptr %8, align 8
  call void @llvm.lifetime.start.p0(i64 8, ptr %9) #8
  call void @llvm.lifetime.start.p0(i64 8, ptr %10) #8
  call void @llvm.lifetime.start.p0(i64 1, ptr %11) #8
  store i8 0, ptr %11, align 1
  %18 = load ptr, ptr %8, align 8
  %19 = icmp eq ptr %18, null
  br i1 %19, label %20, label %23

20:                                               ; preds = %3
  %21 = load ptr, ptr %5, align 8
  %22 = call i32 (ptr, ...) @error(ptr noundef @.str.33, ptr noundef @__func__.job_req_node_filter, ptr noundef %21)
  store i32 22, ptr %4, align 4
  store i32 1, ptr %12, align 4
  br label %145

23:                                               ; preds = %3
  %24 = load ptr, ptr %8, align 8
  %25 = getelementptr inbounds nuw %struct.job_details_t, ptr %24, i32 0, i32 35
  %26 = load ptr, ptr %25, align 8
  store ptr %26, ptr %9, align 8
  call void @llvm.lifetime.start.p0(i64 4, ptr %13) #8
  store i32 0, ptr %13, align 4
  br label %27

27:                                               ; preds = %138, %23
  %28 = load ptr, ptr %6, align 8
  %29 = call ptr @next_node_bitmap(ptr noundef %28, ptr noundef %13)
  store ptr %29, ptr %10, align 8
  %30 = icmp ne ptr %29, null
  br i1 %30, label %32, label %31

31:                                               ; preds = %27
  store i32 2, ptr %12, align 4
  call void @llvm.lifetime.end.p0(i64 4, ptr %13) #8
  br label %141

32:                                               ; preds = %27
  %33 = load ptr, ptr %8, align 8
  %34 = getelementptr inbounds nuw %struct.job_details_t, ptr %33, i32 0, i32 49
  %35 = load i32, ptr %34, align 8
  %36 = load ptr, ptr %10, align 8
  %37 = getelementptr inbounds nuw %struct.node_record, ptr %36, i32 0, i32 16
  %38 = load i16, ptr %37, align 8
  %39 = zext i16 %38 to i32
  %40 = icmp ugt i32 %35, %39
  br i1 %40, label %78, label %41

41:                                               ; preds = %32
  %42 = load ptr, ptr %8, align 8
  %43 = getelementptr inbounds nuw %struct.job_details_t, ptr %42, i32 0, i32 51
  %44 = load i64, ptr %43, align 8
  %45 = and i64 %44, 9223372036854775807
  %46 = load ptr, ptr %10, align 8
  %47 = getelementptr inbounds nuw %struct.node_record, ptr %46, i32 0, i32 54
  %48 = load i64, ptr %47, align 8
  %49 = icmp ugt i64 %45, %48
  br i1 %49, label %78, label %50

50:                                               ; preds = %41
  %51 = load ptr, ptr %8, align 8
  %52 = getelementptr inbounds nuw %struct.job_details_t, ptr %51, i32 0, i32 51
  %53 = load i64, ptr %52, align 8
  %54 = and i64 %53, -9223372036854775808
  %55 = icmp ne i64 %54, 0
  br i1 %55, label %56, label %70

56:                                               ; preds = %50
  %57 = load ptr, ptr %8, align 8
  %58 = getelementptr inbounds nuw %struct.job_details_t, ptr %57, i32 0, i32 51
  %59 = load i64, ptr %58, align 8
  %60 = and i64 %59, 9223372036854775807
  %61 = load ptr, ptr %8, align 8
  %62 = getelementptr inbounds nuw %struct.job_details_t, ptr %61, i32 0, i32 49
  %63 = load i32, ptr %62, align 8
  %64 = zext i32 %63 to i64
  %65 = mul i64 %60, %64
  %66 = load ptr, ptr %10, align 8
  %67 = getelementptr inbounds nuw %struct.node_record, ptr %66, i32 0, i32 54
  %68 = load i64, ptr %67, align 8
  %69 = icmp ugt i64 %65, %68
  br i1 %69, label %78, label %70

70:                                               ; preds = %56, %50
  %71 = load ptr, ptr %8, align 8
  %72 = getelementptr inbounds nuw %struct.job_details_t, ptr %71, i32 0, i32 54
  %73 = load i32, ptr %72, align 4
  %74 = load ptr, ptr %10, align 8
  %75 = getelementptr inbounds nuw %struct.node_record, ptr %74, i32 0, i32 73
  %76 = load i32, ptr %75, align 4
  %77 = icmp ugt i32 %73, %76
  br i1 %77, label %78, label %82

78:                                               ; preds = %70, %56, %41, %32
  %79 = load ptr, ptr %6, align 8
  %80 = load i32, ptr %13, align 4
  %81 = sext i32 %80 to i64
  call void @bit_clear(ptr noundef %79, i64 noundef %81)
  br label %138

82:                                               ; preds = %70
  %83 = load ptr, ptr %9, align 8
  %84 = icmp ne ptr %83, null
  br i1 %84, label %85, label %137

85:                                               ; preds = %82
  %86 = load ptr, ptr %9, align 8
  %87 = getelementptr inbounds nuw %struct.multi_core_data, ptr %86, i32 0, i32 2
  %88 = load i16, ptr %87, align 2
  %89 = zext i16 %88 to i32
  %90 = load ptr, ptr %10, align 8
  %91 = getelementptr inbounds nuw %struct.node_record, ptr %90, i32 0, i32 75
  %92 = load i16, ptr %91, align 2
  %93 = zext i16 %92 to i32
  %94 = icmp sgt i32 %89, %93
  br i1 %94, label %95, label %101

95:                                               ; preds = %85
  %96 = load ptr, ptr %9, align 8
  %97 = getelementptr inbounds nuw %struct.multi_core_data, ptr %96, i32 0, i32 2
  %98 = load i16, ptr %97, align 2
  %99 = zext i16 %98 to i32
  %100 = icmp ne i32 %99, 65534
  br i1 %100, label %133, label %101

101:                                              ; preds = %95, %85
  %102 = load ptr, ptr %9, align 8
  %103 = getelementptr inbounds nuw %struct.multi_core_data, ptr %102, i32 0, i32 3
  %104 = load i16, ptr %103, align 2
  %105 = zext i16 %104 to i32
  %106 = load ptr, ptr %10, align 8
  %107 = getelementptr inbounds nuw %struct.node_record, ptr %106, i32 0, i32 11
  %108 = load i16, ptr %107, align 2
  %109 = zext i16 %108 to i32
  %110 = icmp sgt i32 %105, %109
  br i1 %110, label %111, label %117

111:                                              ; preds = %101
  %112 = load ptr, ptr %9, align 8
  %113 = getelementptr inbounds nuw %struct.multi_core_data, ptr %112, i32 0, i32 3
  %114 = load i16, ptr %113, align 2
  %115 = zext i16 %114 to i32
  %116 = icmp ne i32 %115, 65534
  br i1 %116, label %133, label %117

117:                                              ; preds = %111, %101
  %118 = load ptr, ptr %9, align 8
  %119 = getelementptr inbounds nuw %struct.multi_core_data, ptr %118, i32 0, i32 4
  %120 = load i16, ptr %119, align 2
  %121 = zext i16 %120 to i32
  %122 = load ptr, ptr %10, align 8
  %123 = getelementptr inbounds nuw %struct.node_record, ptr %122, i32 0, i32 72
  %124 = load i16, ptr %123, align 8
  %125 = zext i16 %124 to i32
  %126 = icmp sgt i32 %121, %125
  br i1 %126, label %127, label %137

127:                                              ; preds = %117
  %128 = load ptr, ptr %9, align 8
  %129 = getelementptr inbounds nuw %struct.multi_core_data, ptr %128, i32 0, i32 4
  %130 = load i16, ptr %129, align 2
  %131 = zext i16 %130 to i32
  %132 = icmp ne i32 %131, 65534
  br i1 %132, label %133, label %137

133:                                              ; preds = %127, %111, %95
  %134 = load ptr, ptr %6, align 8
  %135 = load i32, ptr %13, align 4
  %136 = sext i32 %135 to i64
  call void @bit_clear(ptr noundef %134, i64 noundef %136)
  br label %138

137:                                              ; preds = %127, %117, %82
  br label %138

138:                                              ; preds = %137, %133, %78
  %139 = load i32, ptr %13, align 4
  %140 = add nsw i32 %139, 1
  store i32 %140, ptr %13, align 4
  br label %27, !llvm.loop !44

141:                                              ; preds = %31
  %142 = load ptr, ptr %5, align 8
  %143 = load ptr, ptr %6, align 8
  %144 = call i32 @valid_feature_counts(ptr noundef %142, i1 noundef zeroext false, ptr noundef %143, ptr noundef %11)
  store i32 %144, ptr %4, align 4
  store i32 1, ptr %12, align 4
  br label %145

145:                                              ; preds = %141, %20
  call void @llvm.lifetime.end.p0(i64 1, ptr %11) #8
  call void @llvm.lifetime.end.p0(i64 8, ptr %10) #8
  call void @llvm.lifetime.end.p0(i64 8, ptr %9) #8
  call void @llvm.lifetime.end.p0(i64 8, ptr %8) #8
  %146 = load i32, ptr %4, align 4
  ret i32 %146
}