; Function Attrs: nounwind uwtable
define dso_local range(i32 0, 23) i32 @job_req_node_filter(ptr noundef %0, ptr noundef %1, i1 noundef zeroext %2) local_unnamed_addr #0 {
  %4 = alloca i8, align 1
  %5 = alloca i32, align 4
  %6 = getelementptr inbounds nuw i8, ptr %0, i64 216
  %7 = load ptr, ptr %6, align 8
  call void @llvm.lifetime.start.p0(i64 1, ptr nonnull %4) #14
  %8 = icmp eq ptr %7, null
  br i1 %8, label %9, label %11

9:                                                ; preds = %3
  %10 = tail call i32 (ptr, ...) @error(ptr noundef nonnull @.str.33, ptr noundef nonnull @__func__.job_req_node_filter, ptr noundef nonnull %0) #14
  br label %92

11:                                               ; preds = %3
  %12 = getelementptr inbounds nuw i8, ptr %7, i64 248
  %13 = load ptr, ptr %12, align 8
  call void @llvm.lifetime.start.p0(i64 4, ptr nonnull %5) #14
  store i32 0, ptr %5, align 4
  %14 = call ptr @next_node_bitmap(ptr noundef %1, ptr noundef nonnull %5) #14
  %.not48 = icmp eq ptr %14, null
  br i1 %.not48, label %._crit_edge, label %.lr.ph

.lr.ph:                                           ; preds = %11
  %.fr = freeze ptr %13
  %15 = getelementptr inbounds nuw i8, ptr %7, i64 304
  %16 = getelementptr inbounds nuw i8, ptr %7, i64 312
  %17 = getelementptr inbounds nuw i8, ptr %7, i64 332
  %.not39 = icmp eq ptr %.fr, null
  %18 = getelementptr inbounds nuw i8, ptr %.fr, i64 4
  %19 = getelementptr inbounds nuw i8, ptr %.fr, i64 6
  %20 = getelementptr inbounds nuw i8, ptr %.fr, i64 8
  br i1 %.not39, label %.lr.ph.split.us, label %.lr.ph.split

.lr.ph.split.us:                                  ; preds = %.lr.ph, %45
  %21 = phi ptr [ %48, %45 ], [ %14, %.lr.ph ]
  %22 = load i32, ptr %15, align 8
  %23 = getelementptr inbounds nuw i8, ptr %21, i64 112
  %24 = load i16, ptr %23, align 8
  %25 = zext i16 %24 to i32
  %26 = icmp ugt i32 %22, %25
  br i1 %26, label %42, label %27

27:                                               ; preds = %.lr.ph.split.us
  %28 = load i64, ptr %16, align 8
  %29 = and i64 %28, 9223372036854775807
  %30 = getelementptr inbounds nuw i8, ptr %21, i64 376
  %31 = load i64, ptr %30, align 8
  %32 = icmp ugt i64 %29, %31
  br i1 %32, label %42, label %33

33:                                               ; preds = %27
  %.not38.us = icmp slt i64 %28, 0
  %34 = zext nneg i32 %22 to i64
  %35 = mul i64 %29, %34
  %36 = icmp ugt i64 %35, %31
  %or.cond.us = select i1 %.not38.us, i1 %36, i1 false
  br i1 %or.cond.us, label %42, label %37

37:                                               ; preds = %33
  %38 = load i32, ptr %17, align 4
  %39 = getelementptr inbounds nuw i8, ptr %21, i64 508
  %40 = load i32, ptr %39, align 4
  %41 = icmp ugt i32 %38, %40
  br i1 %41, label %42, label %45

42:                                               ; preds = %37, %33, %27, %.lr.ph.split.us
  %43 = load i32, ptr %5, align 4
  %44 = sext i32 %43 to i64
  call void @bit_clear(ptr noundef %1, i64 noundef %44) #14
  br label %45

45:                                               ; preds = %37, %42
  %46 = load i32, ptr %5, align 4
  %47 = add nsw i32 %46, 1
  store i32 %47, ptr %5, align 4
  %48 = call ptr @next_node_bitmap(ptr noundef %1, ptr noundef nonnull %5) #14
  %.not.us = icmp eq ptr %48, null
  br i1 %.not.us, label %._crit_edge, label %.lr.ph.split.us, !llvm.loop !49

._crit_edge:                                      ; preds = %88, %45, %11
  call void @llvm.lifetime.end.p0(i64 4, ptr nonnull %5) #14
  %49 = call i32 @valid_feature_counts(ptr noundef %0, i1 noundef zeroext false, ptr noundef %1, ptr noundef nonnull %4)
  br label %92

.lr.ph.split:                                     ; preds = %.lr.ph, %88
  %50 = phi ptr [ %91, %88 ], [ %14, %.lr.ph ]
  %51 = load i32, ptr %15, align 8
  %52 = getelementptr inbounds nuw i8, ptr %50, i64 112
  %53 = load i16, ptr %52, align 8
  %54 = zext i16 %53 to i32
  %55 = icmp ugt i32 %51, %54
  br i1 %55, label %.sink.split, label %56

56:                                               ; preds = %.lr.ph.split
  %57 = load i64, ptr %16, align 8
  %58 = and i64 %57, 9223372036854775807
  %59 = getelementptr inbounds nuw i8, ptr %50, i64 376
  %60 = load i64, ptr %59, align 8
  %61 = icmp ugt i64 %58, %60
  br i1 %61, label %.sink.split, label %62

62:                                               ; preds = %56
  %.not38 = icmp slt i64 %57, 0
  %63 = zext nneg i32 %51 to i64
  %64 = mul i64 %58, %63
  %65 = icmp ugt i64 %64, %60
  %or.cond = select i1 %.not38, i1 %65, i1 false
  br i1 %or.cond, label %.sink.split, label %66

66:                                               ; preds = %62
  %67 = load i32, ptr %17, align 4
  %68 = getelementptr inbounds nuw i8, ptr %50, i64 508
  %69 = load i32, ptr %68, align 4
  %70 = icmp ugt i32 %67, %69
  br i1 %70, label %.sink.split, label %71

71:                                               ; preds = %66
  %72 = load i16, ptr %18, align 2
  %73 = getelementptr inbounds nuw i8, ptr %50, i64 514
  %74 = load i16, ptr %73, align 2
  %75 = icmp ule i16 %72, %74
  %.not40 = icmp eq i16 %72, -2
  %or.cond45 = or i1 %.not40, %75
  br i1 %or.cond45, label %76, label %.sink.split

76:                                               ; preds = %71
  %77 = load i16, ptr %19, align 2
  %78 = getelementptr inbounds nuw i8, ptr %50, i64 82
  %79 = load i16, ptr %78, align 2
  %80 = icmp ule i16 %77, %79
  %.not41 = icmp eq i16 %77, -2
  %or.cond46 = or i1 %.not41, %80
  br i1 %or.cond46, label %81, label %.sink.split

81:                                               ; preds = %76
  %82 = load i16, ptr %20, align 2
  %83 = getelementptr inbounds nuw i8, ptr %50, i64 504
  %84 = load i16, ptr %83, align 8
  %85 = icmp ule i16 %82, %84
  %.not42 = icmp eq i16 %82, -2
  %or.cond47 = or i1 %.not42, %85
  br i1 %or.cond47, label %88, label %.sink.split

.sink.split:                                      ; preds = %71, %76, %81, %.lr.ph.split, %56, %66, %62
  %86 = load i32, ptr %5, align 4
  %87 = sext i32 %86 to i64
  call void @bit_clear(ptr noundef %1, i64 noundef %87) #14
  br label %88

88:                                               ; preds = %.sink.split, %81
  %89 = load i32, ptr %5, align 4
  %90 = add nsw i32 %89, 1
  store i32 %90, ptr %5, align 4
  %91 = call ptr @next_node_bitmap(ptr noundef %1, ptr noundef nonnull %5) #14
  %.not = icmp eq ptr %91, null
  br i1 %.not, label %._crit_edge, label %.lr.ph.split, !llvm.loop !49

92:                                               ; preds = %._crit_edge, %9
  %.0 = phi i32 [ 22, %9 ], [ 0, %._crit_edge ]
  call void @llvm.lifetime.end.p0(i64 1, ptr nonnull %4) #14
  ret i32 %.0
}